(dp0
I0
((lp1
F19.0
aF31.0
aF192.0
aF2.0
aF1.0
aF9.0
aF16.0
aF10.0
aF10.0
aF3.0
a(lp2
F2.2638888888888893
aF0.3089887640449438
aF1.906951871657754
aF1.0
aF3000.0
aF0.7659574468085106
aF0.7924528301886793
aF0.2258064516129032
aF0.9062499999999999
aF0.5833333333333334
a(lp3
F4.25
aF2.691011235955056
aF3.0962566844919786
aF3.0
aF15000.0
aF2.4680851063829787
aF1.820754716981132
aF1.6612903225806452
aF1.921875
aF2.666666666666667
a(lp4
F193.73684210526315
aF29.258064516129032
aF116.65104166666667
aF136.5
aF42.0
aF84.66666666666667
aF160.1875
aF37.2
aF164.1
aF47.666666666666664
a(lp5
F63.1578947368421
aF48.38709677419355
aF58.854166666666664
aF100.0
aF100.0
aF55.55555555555556
aF37.5
aF60.0
aF40.0
aF33.33333333333333
a(lp6
F152632.94736842104
aF23197.90322580645
aF143304.16666666666
aF113699.0
aF96997.0
aF60719.555555555555
aF107157.1875
aF22032.5
aF118119.0
aF128483.33333333333
atp7
sI1
((lp8
F21.0
aF316.0
aF14.0
aF22.0
aF3.0
aF7.0
aF17.0
aF87.0
aF32.0
aF11.0
a(lp9
F1.5043478260869563
aF1.600262123197903
aF0.5393258426966292
aF0.9225352112676056
aF0.9545454545454546
aF0.9047619047619048
aF0.35238095238095235
aF1.7420924574209244
aF2.5031847133757963
aF0.7090909090909091
a(lp10
F3.3217391304347825
aF3.2549148099606815
aF2.696629213483146
aF2.316901408450704
aF2.7727272727272734
aF2.119047619047619
aF2.3523809523809525
aF3.0535279805352795
aF3.78343949044586
aF2.818181818181818
a(lp11
F172.85714285714286
aF169.7626582278481
aF36.92857142857143
aF40.36363636363637
aF170.33333333333334
aF158.85714285714286
aF29.764705882352942
aF187.11494252873564
aF135.125
aF34.81818181818182
a(lp12
F57.14285714285714
aF60.12658227848101
aF57.14285714285714
aF40.909090909090914
aF33.33333333333333
aF42.857142857142854
aF52.94117647058824
aF47.12643678160919
aF53.125
aF54.54545454545454
a(lp13
F131989.7142857143
aF111696.8670886076
aF35293.28571428572
aF89701.09090909091
aF116432.33333333333
aF123608.42857142857
aF31639.882352941175
aF139714.55172413794
aF182161.75
aF81360.45454545454
atp14
sI2
((lp15
F111.0
aF7.0
aF8.0
aF15.0
aF25.0
aF72.0
aF21.0
aF24.0
aF76.0
aF8.0
a(lp16
F1.3016949152542374
aF0.8695652173913044
aF0.9696969696969697
aF0.9263157894736842
aF0.76
aF0.8653250773993809
aF1.3529411764705883
aF0.9872611464968152
aF0.23444976076555024
aF0.8627450980392157
a(lp17
F2.7152542372881356
aF4.782608695652175
aF1.7878787878787878
aF3.4421052631578952
aF3.4400000000000004
aF1.8746130030959751
aF3.1470588235294117
aF2.8025477707006368
aF2.6746411483253585
aF2.5294117647058822
a(lp18
F184.13513513513513
aF87.14285714285714
aF133.5
aF52.53333333333333
aF50.0
aF181.18055555555554
aF90.38095238095238
aF39.041666666666664
aF47.55263157894737
aF160.125
a(lp19
F49.549549549549546
aF85.71428571428571
aF25.0
aF60.0
aF56.00000000000001
aF56.94444444444444
aF52.38095238095239
aF75.0
aF55.26315789473685
aF62.5
a(lp20
F150062.79279279278
aF65524.0
aF124988.5
aF122979.53333333334
aF41803.96
aF149956.86111111112
aF141237.2380952381
aF95797.66666666667
aF31933.36842105263
aF114660.25
atp21
sI3
((lp22
F49.0
aF20.0
aF47.0
aF149.0
aF5.0
aF66.0
aF20.0
aF149.0
aF6.0
aF15.0
a(lp23
F0.48756218905472637
aF1.2317073170731707
aF1.7206703910614525
aF1.491638795986622
aF0.9444444444444444
aF1.25503355704698
aF0.6592592592592593
aF1.9529170931422721
aF0.21739130434782608
aF1.6808510638297873
a(lp24
F3.6965174129353233
aF3.0121951219512195
aF4.324022346368715
aF3.6973244147157187
aF5.166666666666666
aF2.404921700223714
aF1.9259259259259258
aF3.127942681678608
aF3.608695652173913
aF2.7659574468085104
a(lp25
F23.877551020408163
aF172.35
aF204.80851063829786
aF199.93959731543623
aF32.6
aF170.8030303030303
aF38.95
aF173.01342281879195
aF33.833333333333336
aF176.6
a(lp26
F57.14285714285714
aF40.0
aF55.319148936170215
aF53.691275167785236
aF80.0
aF46.96969696969697
aF45.0
aF64.42953020134227
aF66.66666666666666
aF60.0
a(lp27
F26138.85714285714
aF120616.7
aF166124.68085106384
aF150571.1476510067
aF93221.8
aF124678.71212121213
aF91613.6
aF131917.36241610738
aF29470.333333333332
aF119603.06666666667
atp28
sI4
((lp29
F192.0
aF10.0
aF2.0
aF131.0
aF4.0
aF1.0
aF5.0
aF1.0
aF14.0
aF13.0
a(lp30
F0.24903474903474904
aF0.8333333333333333
aF1.4545454545454546
aF1.3516483516483517
aF0.7727272727272727
aF2.0
aF1.55
aF1.75
aF2.4029850746268657
aF0.16279069767441862
a(lp31
F2.8841698841698844
aF2.0370370370370368
aF2.4545454545454546
aF2.8037676609105184
aF2.1363636363636362
aF4.75
aF4.05
aF4.25
aF4.253731343283582
aF4.441860465116279
a(lp32
F25.848958333333332
aF181.6
aF39.0
aF176.3206106870229
aF188.5
aF192.0
aF214.2
aF198.0
aF181.21428571428572
aF9.538461538461538
a(lp33
F57.291666666666664
aF40.0
aF50.0
aF46.56488549618321
aF50.0
aF100.0
aF80.0
aF100.0
aF85.71428571428571
aF69.23076923076923
a(lp34
F20246.614583333332
aF104597.2
aF138077.5
aF127909.76335877863
aF141764.75
aF118732.0
aF183486.4
aF143274.0
aF183345.7142857143
aF9545.846153846154
atp35
s.