(dp0
I0
((lp1
F20.0
aF32.0
aF200.0
aF2.0
aF1.0
aF9.0
aF16.0
aF10.0
aF10.0
aF3.0
a(lp2
F2.0246913580246915
aF0.29015544041450775
aF1.9095580678314488
aF1.0
aF3000.0
aF0.7659574468085106
aF0.7924528301886793
aF0.2258064516129032
aF0.9062499999999999
aF0.5833333333333334
a(lp3
F3.851851851851852
aF2.5854922279792745
aF3.083247687564234
aF3.0
aF15000.0
aF2.4680851063829787
aF1.820754716981132
aF1.6612903225806452
aF1.921875
aF2.666666666666667
a(lp4
F8.2
aF1.75
aF9.29
aF6.5
aF3.0
aF4.0
aF5.25
aF1.4
aF5.8
aF2.3333333333333335
a(lp5
F4.05
aF6.03125
aF4.865
aF6.5
aF0.001
aF5.222222222222222
aF6.625
aF6.2
aF6.4
aF4.0
a(lp6
F191.95
aF29.96875
aF116.725
aF136.5
aF42.0
aF84.66666666666667
aF160.1875
aF37.2
aF164.1
aF47.666666666666664
a(lp7
F60.0
aF46.875
aF57.99999999999999
aF100.0
aF100.0
aF55.55555555555556
aF37.5
aF60.0
aF40.0
aF33.33333333333333
a(lp8
F150044.25
aF24365.625
aF142555.635
aF113699.0
aF96997.0
aF60719.555555555555
aF107157.1875
aF22032.5
aF118119.0
aF128483.33333333333
a(lp9
F17.0
aF6.0
aF24.0
aF11.0
aF3.0
aF7.0
aF17.0
aF3.0
aF9.0
aF4.0
a(lp10
F3839.0
aF959.0
aF23345.0
aF273.0
aF42.0
aF762.0
aF2563.0
aF372.0
aF1641.0
aF143.0
a(lp11
F191.95
aF29.96875
aF116.725
aF136.5
aF42.0
aF84.66666666666667
aF160.1875
aF37.2
aF164.1
aF47.666666666666664
a(lp12
F19557.4
aF23335.625
aF23392.605
aF24498.5
aF8570.0
aF23683.333333333332
aF21577.3125
aF23733.4
aF20690.4
aF30389.666666666668
a(lp13
F0.95
aF0.0625
aF0.92
aF0.0
aF0.0
aF0.3333333333333333
aF0.5625
aF0.0
aF0.4
aF0.0
a(lp14
F0.05
aF0.0
aF0.195
aF0.0
aF0.0
aF0.0
aF0.0
aF0.0
aF0.1
aF0.0
a(lp15
F0.0
aF0.0
aF0.025
aF0.0
aF0.0
aF0.0
aF0.0
aF0.0
aF0.0
aF0.0
a(lp16
F0.0
aF0.0
aF0.005
aF0.0
aF0.0
aF0.0
aF0.0
aF0.0
aF0.0
aF0.0
a(lp17
F0.0
aF0.0
aF0.0
aF0.0
aF0.0
aF0.0
aF0.0
aF0.0
aF0.0
aF0.0
a(lp18
F12684.7
aF9076.28125
aF12496.45
aF11352.0
aF8684.0
aF8809.111111111111
aF10517.6875
aF7320.9
aF11184.3
aF9273.333333333334
a(lp19
I01
aI01
aI01
aI01
aI01
aI00
aI00
aI00
aI00
aI00
atp20
sI1
((lp21
F23.0
aF319.0
aF15.0
aF23.0
aF3.0
aF7.0
aF17.0
aF87.0
aF32.0
aF11.0
a(lp22
F1.4328358208955223
aF1.6033920417482062
aF0.5408163265306123
aF0.9178082191780822
aF0.9545454545454546
aF0.9047619047619048
aF0.35238095238095235
aF1.7420924574209244
aF2.5031847133757963
aF0.7090909090909091
a(lp23
F3.134328358208955
aF3.260926288323549
aF2.7346938775510203
aF2.2739726027397262
aF2.7727272727272734
aF2.119047619047619
aF2.3523809523809525
aF3.0535279805352795
aF3.78343949044586
aF2.818181818181818
a(lp24
F8.347826086956522
aF7.705329153605016
aF3.533333333333333
aF5.826086956521739
aF7.0
aF5.428571428571429
aF2.176470588235294
aF8.229885057471265
aF12.28125
aF3.5454545454545454
a(lp25
F5.826086956521739
aF4.80564263322884
aF6.533333333333333
aF6.3478260869565215
aF7.333333333333333
aF6.0
aF6.176470588235294
aF4.724137931034483
aF4.90625
aF5.0
a(lp26
F181.34782608695653
aF169.73040752351096
aF36.666666666666664
aF39.78260869565217
aF170.33333333333334
aF158.85714285714286
aF29.764705882352942
aF187.11494252873564
aF135.125
aF34.81818181818182
a(lp27
F56.52173913043478
aF60.50156739811913
aF60.0
aF39.130434782608695
aF33.33333333333333
aF42.857142857142854
aF52.94117647058824
aF47.12643678160919
aF53.125
aF54.54545454545454
a(lp28
F144300.1739130435
aF111678.84326018809
aF35690.4
aF88372.08695652174
aF116432.33333333333
aF123608.42857142857
aF31639.882352941175
aF139714.55172413794
aF182161.75
aF81360.45454545454
a(lp29
F17.0
aF23.0
aF6.0
aF16.0
aF11.0
aF15.0
aF6.0
aF26.0
aF39.0
aF6.0
a(lp30
F4171.0
aF54144.0
aF550.0
aF915.0
aF511.0
aF1112.0
aF506.0
aF16279.0
aF4324.0
aF383.0
a(lp31
F181.34782608695653
aF169.73040752351096
aF36.666666666666664
aF39.78260869565217
aF170.33333333333334
aF158.85714285714286
aF29.764705882352942
aF187.11494252873564
aF135.125
aF34.81818181818182
a(lp32
F21169.347826086956
aF21848.64263322884
aF23006.4
aF24077.130434782608
aF28793.0
aF25744.571428571428
aF18244.41176470588
aF19000.735632183907
aF28671.875
aF28429.0
a(lp33
F0.9130434782608695
aF0.890282131661442
aF0.06666666666666667
aF0.34782608695652173
aF1.0
aF0.42857142857142855
aF0.0
aF1.0804597701149425
aF1.6875
aF0.0
a(lp34
F0.13043478260869565
aF0.11285266457680251
aF0.0
aF0.0
aF0.0
aF0.0
aF0.0
aF0.21839080459770116
aF0.40625
aF0.0
a(lp35
F0.043478260869565216
aF0.018808777429467086
aF0.0
aF0.0
aF0.0
aF0.0
aF0.0
aF0.04597701149425287
aF0.125
aF0.0
a(lp36
F0.0
aF0.006269592476489028
aF0.0
aF0.0
aF0.0
aF0.0
aF0.0
aF0.022988505747126436
aF0.03125
aF0.0
a(lp37
F0.0
aF0.0
aF0.0
aF0.0
aF0.0
aF0.0
aF0.0
aF0.0
aF0.0
aF0.0
a(lp38
F12746.608695652174
aF11728.990595611285
aF9891.6
aF9497.0
aF12760.333333333334
aF11398.857142857143
aF9253.470588235294
aF13426.540229885057
aF14229.75
aF9303.818181818182
a(lp39
I00
aI00
aI00
aI00
aI00
aI01
aI01
aI01
aI01
aI01
atp40
sI2
((lp41
F111.0
aF7.0
aF8.0
aF15.0
aF25.0
aF73.0
aF21.0
aF24.0
aF77.0
aF8.0
a(lp42
F1.3016949152542374
aF0.8695652173913044
aF0.9696969696969697
aF0.9263157894736842
aF0.76
aF0.8794435857805254
aF1.3529411764705883
aF0.9872611464968152
aF0.23294117647058823
aF0.8627450980392157
a(lp43
F2.7152542372881356
aF4.782608695652175
aF1.7878787878787878
aF3.4421052631578952
aF3.4400000000000004
aF1.8902627511591963
aF3.1470588235294117
aF2.8025477707006368
aF2.675294117647059
aF2.5294117647058822
a(lp44
F6.918918918918919
aF2.857142857142857
aF8.0
aF5.866666666666666
aF3.04
aF7.794520547945205
aF6.571428571428571
aF6.458333333333333
aF1.2857142857142858
aF5.5
a(lp45
F5.315315315315315
aF3.2857142857142856
aF8.25
aF6.333333333333333
aF4.0
aF8.863013698630137
aF4.857142857142857
aF6.541666666666667
aF5.51948051948052
aF6.375
a(lp46
F184.13513513513513
aF87.14285714285714
aF133.5
aF52.53333333333333
aF50.0
aF180.73972602739727
aF90.38095238095238
aF39.041666666666664
aF47.45454545454545
aF160.125
a(lp47
F49.549549549549546
aF85.71428571428571
aF25.0
aF60.0
aF56.00000000000001
aF57.534246575342465
aF52.38095238095239
aF75.0
aF55.84415584415584
aF62.5
a(lp48
F150062.79279279278
aF65524.0
aF124988.5
aF122979.53333333334
aF41803.96
aF149186.65753424657
aF141237.2380952381
aF95797.66666666667
aF31974.987012987014
aF114660.25
a(lp49
F20.0
aF7.0
aF15.0
aF13.0
aF9.0
aF18.0
aF16.0
aF13.0
aF4.0
aF11.0
a(lp50
F20439.0
aF610.0
aF1068.0
aF788.0
aF1250.0
aF13194.0
aF1898.0
aF937.0
aF3654.0
aF1281.0
a(lp51
F184.13513513513513
aF87.14285714285714
aF133.5
aF52.53333333333333
aF50.0
aF180.73972602739727
aF90.38095238095238
aF39.041666666666664
aF47.45454545454545
aF160.125
a(lp52
F21850.963963963964
aF13418.0
aF31643.25
aF31098.666666666668
aF14920.04
aF26320.31506849315
aF26352.238095238095
aF27685.833333333332
aF22045.68831168831
aF17786.5
a(lp53
F0.8018018018018018
aF0.0
aF0.375
aF0.4666666666666667
aF0.16
aF0.8904109589041096
aF0.7142857142857143
aF0.4583333333333333
aF0.05194805194805195
aF0.75
a(lp54
F0.11711711711711711
aF0.0
aF0.0
aF0.06666666666666667
aF0.0
aF0.136986301369863
aF0.0
aF0.0
aF0.0
aF0.0
a(lp55
F0.036036036036036036
aF0.0
aF0.0
aF0.0
aF0.0
aF0.0
aF0.0
aF0.0
aF0.0
aF0.0
a(lp56
F0.009009009009009009
aF0.0
aF0.0
aF0.0
aF0.0
aF0.0
aF0.0
aF0.0
aF0.0
aF0.0
a(lp57
F0.0
aF0.0
aF0.0
aF0.0
aF0.0
aF0.0
aF0.0
aF0.0
aF0.0
aF0.0
a(lp58
F12475.414414414414
aF9684.42857142857
aF11872.25
aF12501.333333333334
aF9361.32
aF12767.753424657534
aF11456.619047619048
aF10868.791666666666
aF8312.48051948052
aF11834.125
a(lp59
I01
aI01
aI01
aI01
aI01
aI00
aI00
aI00
aI00
aI00
atp60
sI3
((lp61
F49.0
aF20.0
aF47.0
aF149.0
aF6.0
aF66.0
aF20.0
aF149.0
aF6.0
aF15.0
a(lp62
F0.48756218905472637
aF1.2317073170731707
aF1.7206703910614525
aF1.491638795986622
aF1.0799999999999998
aF1.25503355704698
aF0.6592592592592593
aF1.9529170931422721
aF0.21739130434782608
aF1.6808510638297873
a(lp63
F3.6965174129353233
aF3.0121951219512195
aF4.324022346368715
aF3.6973244147157187
aF4.359999999999999
aF2.404921700223714
aF1.9259259259259258
aF3.127942681678608
aF3.608695652173913
aF2.7659574468085104
a(lp64
F2.0
aF5.05
aF6.553191489361702
aF5.9865771812080535
aF4.5
aF8.5
aF4.45
aF12.805369127516778
aF0.8333333333333334
aF10.533333333333333
a(lp65
F4.1020408163265305
aF4.1
aF3.8085106382978724
aF4.0134228187919465
aF4.166666666666667
aF6.7727272727272725
aF6.75
aF6.557046979865772
aF3.8333333333333335
aF6.266666666666667
a(lp66
F23.877551020408163
aF172.35
aF204.80851063829786
aF199.93959731543623
aF69.5
aF170.8030303030303
aF38.95
aF173.01342281879195
aF33.833333333333336
aF176.6
a(lp67
F57.14285714285714
aF40.0
aF55.319148936170215
aF53.691275167785236
aF66.66666666666666
aF46.96969696969697
aF45.0
aF64.42953020134227
aF66.66666666666666
aF60.0
a(lp68
F26138.85714285714
aF120616.7
aF166124.68085106384
aF150571.1476510067
aF114167.0
aF124678.71212121213
aF91613.6
aF131917.36241610738
aF29470.333333333332
aF119603.06666666667
a(lp69
F5.0
aF15.0
aF19.0
aF22.0
aF10.0
aF19.0
aF10.0
aF41.0
aF2.0
aF19.0
a(lp70
F1170.0
aF3447.0
aF9626.0
aF29791.0
aF417.0
aF11273.0
aF779.0
aF25779.0
aF203.0
aF2649.0
a(lp71
F23.877551020408163
aF172.35
aF204.80851063829786
aF199.93959731543623
aF69.5
aF170.8030303030303
aF38.95
aF173.01342281879195
aF33.833333333333336
aF176.6
a(lp72
F18663.163265306124
aF19545.4
aF15555.510638297872
aF17790.28859060403
aF24408.666666666668
aF23461.121212121212
aF24229.9
aF21044.86577181208
aF10822.833333333334
aF25877.0
a(lp73
F0.0
aF0.8
aF0.7872340425531915
aF0.6174496644295302
aF0.0
aF1.1666666666666667
aF0.25
aF2.38255033557047
aF0.0
aF1.7333333333333334
a(lp74
F0.0
aF0.1
aF0.23404255319148937
aF0.1342281879194631
aF0.0
aF0.30303030303030304
aF0.0
aF0.5503355704697986
aF0.0
aF0.13333333333333333
a(lp75
F0.0
aF0.0
aF0.0425531914893617
aF0.013422818791946308
aF0.0
aF0.045454545454545456
aF0.0
aF0.14093959731543623
aF0.0
aF0.0
a(lp76
F0.0
aF0.0
aF0.02127659574468085
aF0.0
aF0.0
aF0.0
aF0.0
aF0.03355704697986577
aF0.0
aF0.0
a(lp77
F0.0
aF0.0
aF0.0
aF0.0
aF0.0
aF0.0
aF0.0
aF0.0
aF0.0
aF0.0
a(lp78
F8663.673469387755
aF11579.2
aF13068.595744680852
aF12763.71812080537
aF11753.666666666666
aF12627.469696969696
aF9566.4
aF13444.68456375839
aF7834.0
aF12885.4
a(lp79
I00
aI00
aI00
aI00
aI00
aI01
aI01
aI01
aI01
aI01
atp80
sI4
((lp81
F192.0
aF11.0
aF2.0
aF133.0
aF4.0
aF1.0
aF5.0
aF2.0
aF16.0
aF13.0
a(lp82
F0.24903474903474904
aF0.8620689655172415
aF1.4545454545454546
aF1.3689922480620156
aF0.7727272727272727
aF2.0
aF1.55
aF2.6
aF2.1772151898734178
aF0.16279069767441862
a(lp83
F2.8841698841698844
aF2.2931034482758625
aF2.4545454545454546
aF2.826356589147287
aF2.1363636363636362
aF4.75
aF4.05
aF4.8
aF3.9873417721518987
aF4.441860465116279
a(lp84
F1.34375
aF4.545454545454546
aF8.0
aF6.639097744360902
aF4.25
aF8.0
aF6.2
aF6.5
aF10.75
aF0.5384615384615384
a(lp85
F5.395833333333333
aF5.2727272727272725
aF5.5
aF4.849624060150376
aF5.5
aF4.0
aF4.0
aF2.5
aF4.9375
aF3.3076923076923075
a(lp86
F25.848958333333332
aF191.9090909090909
aF39.0
aF175.8421052631579
aF188.5
aF192.0
aF214.2
aF175.0
aF166.0
aF9.538461538461538
a(lp87
F57.291666666666664
aF36.36363636363637
aF50.0
aF46.616541353383454
aF50.0
aF100.0
aF80.0
aF100.0
aF81.25
aF69.23076923076923
a(lp88
F20246.614583333332
aF113222.54545454546
aF138077.5
aF127582.94736842105
aF141764.75
aF118732.0
aF183486.4
aF119002.0
aF177717.1875
aF9545.846153846154
a(lp89
F7.0
aF16.0
aF13.0
aF19.0
aF7.0
aF8.0
aF11.0
aF7.0
aF18.0
aF3.0
a(lp90
F4963.0
aF2111.0
aF78.0
aF23387.0
aF754.0
aF192.0
aF1071.0
aF350.0
aF2656.0
aF124.0
a(lp91
F25.848958333333332
aF191.9090909090909
aF39.0
aF175.8421052631579
aF188.5
aF192.0
aF214.2
aF175.0
aF166.0
aF9.538461538461538
a(lp92
F22435.276041666668
aF29945.0
aF23512.5
aF19705.917293233084
aF16112.5
aF24776.0
aF21936.6
aF11791.5
aF31486.875
aF13029.076923076924
a(lp93
F0.041666666666666664
aF0.45454545454545453
aF0.5
aF0.8195488721804511
aF0.0
aF2.0
aF0.2
aF1.0
aF0.5625
aF0.0
a(lp94
F0.0
aF0.0
aF0.0
aF0.09774436090225563
aF0.0
aF0.0
aF0.2
aF0.0
aF0.125
aF0.0
a(lp95
F0.0
aF0.0
aF0.0
aF0.007518796992481203
aF0.0
aF0.0
aF0.0
aF0.0
aF0.0
aF0.0
a(lp96
F0.0
aF0.0
aF0.0
aF0.0
aF0.0
aF0.0
aF0.0
aF0.0
aF0.0
aF0.0
a(lp97
F0.0
aF0.0
aF0.0
aF0.0
aF0.0
aF0.0
aF0.0
aF0.0
aF0.0
aF0.0
a(lp98
F8709.171875
aF11376.545454545454
aF11204.5
aF11525.676691729323
aF11776.25
aF13708.0
aF13560.8
aF10549.5
aF14534.0
aF8440.076923076924
a(lp99
I00
aI00
aI00
aI00
aI00
aI01
aI01
aI01
aI01
aI01
atp100
s.